; Function Attrs: nounwind uwtable
define hidden void @av1_visit_palette(ptr nocapture noundef readonly %0, ptr noundef %1, ptr noundef %2, ptr nocapture noundef readonly %3) local_unnamed_addr #0 {
  %5 = getelementptr inbounds nuw i8, ptr %1, i64 7864
  %6 = load ptr, ptr %5, align 8
  %7 = load ptr, ptr %6, align 8
  %8 = getelementptr i8, ptr %7, i64 175
  %.val.i = load i16, ptr %8, align 1
  %9 = and i16 %.val.i, 128
  %.not.i = icmp eq i16 %9, 0
  br i1 %.not.i, label %is_inter_block.exit, label %is_inter_block.exit.thread

is_inter_block.exit:                              ; preds = %4
  %10 = getelementptr inbounds nuw i8, ptr %7, i64 16
  %11 = load i8, ptr %10, align 8
  %12 = icmp slt i8 %11, 1
  br i1 %12, label %.preheader, label %is_inter_block.exit.thread

.preheader:                                       ; preds = %is_inter_block.exit
  %13 = getelementptr i8, ptr %0, i64 73229
  %14 = getelementptr inbounds nuw i8, ptr %1, i64 12
  br label %15

15:                                               ; preds = %.preheader, %28
  %16 = phi i1 [ true, %.preheader ], [ false, %28 ]
  %indvars.iv = phi i64 [ 0, %.preheader ], [ 1, %28 ]
  br i1 %16, label %20, label %17

17:                                               ; preds = %15
  %18 = load i8, ptr %14, align 4
  %19 = trunc i8 %18 to i1
  br i1 %19, label %20, label %is_inter_block.exit.thread

20:                                               ; preds = %17, %15
  %21 = load ptr, ptr %5, align 8
  %22 = load ptr, ptr %21, align 8
  %23 = getelementptr inbounds i8, ptr %22, i64 150
  %24 = getelementptr inbounds [2 x i8], ptr %23, i64 0, i64 %indvars.iv
  %25 = load i8, ptr %24, align 1
  %.not12 = icmp eq i8 %25, 0
  br i1 %.not12, label %28, label %26

26:                                               ; preds = %20
  %27 = trunc nuw nsw i64 %indvars.iv to i32
  tail call void %3(ptr noundef nonnull %1, i32 noundef %27, ptr noundef %2) #10
  br label %28

28:                                               ; preds = %26, %20
  %.val13 = load i8, ptr %13, align 1
  %.not.i14 = icmp eq i8 %.val13, 0
  %29 = and i1 %.not.i14, %16
  br i1 %29, label %15, label %is_inter_block.exit.thread, !llvm.loop !9

is_inter_block.exit.thread:                       ; preds = %17, %28, %4, %is_inter_block.exit
  ret void
}